target datalayout = "e-m:e-p270:32:32-p271:32:32-p272:64:64-i64:64-i128:128-f80:128-n8:16:32:64-S128"
target triple = "x86_64-pc-linux-gnu"

%"class.gmx::TrajectoryElement" = type { %"class.gmx::ISimulatorElement", %"class.gmx::ILoggingSignallerClient", %"class.gmx::ITrajectorySignallerClient", i64, i64, i64, ptr, %"class.std::vector", %"class.std::vector.2", %"class.std::vector.2" }
%"class.gmx::ISimulatorElement" = type { ptr }
%"class.gmx::ILoggingSignallerClient" = type { ptr }
%"class.gmx::ITrajectorySignallerClient" = type { ptr }
%"class.std::vector" = type { %"struct.std::_Vector_base" }
%"struct.std::_Vector_base" = type { %"struct.std::_Vector_base<gmx::ITrajectoryWriterClient *, std::allocator<gmx::ITrajectoryWriterClient *>>::_Vector_impl" }
%"struct.std::_Vector_base<gmx::ITrajectoryWriterClient *, std::allocator<gmx::ITrajectoryWriterClient *>>::_Vector_impl" = type { %"struct.std::_Vector_base<gmx::ITrajectoryWriterClient *, std::allocator<gmx::ITrajectoryWriterClient *>>::_Vector_impl_data" }
%"struct.std::_Vector_base<gmx::ITrajectoryWriterClient *, std::allocator<gmx::ITrajectoryWriterClient *>>::_Vector_impl_data" = type { ptr, ptr, ptr }
%"class.std::vector.2" = type { %"struct.std::_Vector_base.3" }
%"struct.std::_Vector_base.3" = type { %"struct.std::_Vector_base<std::function<void (gmx_mdoutf *, long, double, bool, bool)>, std::allocator<std::function<void (gmx_mdoutf *, long, double, bool, bool)>>>::_Vector_impl" }
%"struct.std::_Vector_base<std::function<void (gmx_mdoutf *, long, double, bool, bool)>, std::allocator<std::function<void (gmx_mdoutf *, long, double, bool, bool)>>>::_Vector_impl" = type { %"struct.std::_Vector_base<std::function<void (gmx_mdoutf *, long, double, bool, bool)>, std::allocator<std::function<void (gmx_mdoutf *, long, double, bool, bool)>>>::_Vector_impl_data" }
%"struct.std::_Vector_base<std::function<void (gmx_mdoutf *, long, double, bool, bool)>, std::allocator<std::function<void (gmx_mdoutf *, long, double, bool, bool)>>>::_Vector_impl_data" = type { ptr, ptr, ptr }

@_ZTVN3gmx23ILoggingSignallerClientE = linkonce_odr unnamed_addr constant { [5 x ptr] } { [5 x ptr] [ptr null, ptr @_ZTIN3gmx23ILoggingSignallerClientE, ptr @_ZN3gmx23ILoggingSignallerClientD2Ev, ptr @_ZN3gmx23ILoggingSignallerClientD0Ev, ptr @__cxa_pure_virtual] }, comdat, align 8
@_ZTVN3gmx26ITrajectorySignallerClientE = linkonce_odr unnamed_addr constant { [5 x ptr] } { [5 x ptr] [ptr null, ptr @_ZTIN3gmx26ITrajectorySignallerClientE, ptr @_ZN3gmx26ITrajectorySignallerClientD2Ev, ptr @_ZN3gmx26ITrajectorySignallerClientD0Ev, ptr @__cxa_pure_virtual] }, comdat, align 8

; Function Attrs: mustprogress nounwind uwtable
define linkonce_odr void @_ZNSt15__new_allocatorISt8functionIFvP10gmx_mdoutfldbbEEEC2Ev(ptr noundef nonnull align 1 dereferenceable(1) %0) unnamed_addr #2 comdat align 2 {
  %2 = alloca ptr, align 8
  store ptr %0, ptr %2, align 8, !tbaa !117
  ret void
}

; Function Attrs: mustprogress nounwind uwtable
define linkonce_odr void @_ZNSt15__new_allocatorIPN3gmx23ITrajectoryWriterClientEEC2ERKS3_(ptr noundef nonnull align 1 dereferenceable(1) %0, ptr noundef nonnull align 1 dereferenceable(1) %1) unnamed_addr #2 comdat align 2 {
  %3 = alloca ptr, align 8
  %4 = alloca ptr, align 8
  store ptr %0, ptr %3, align 8, !tbaa !104
  store ptr %1, ptr %4, align 8, !tbaa !104
  ret void
}

; Function Attrs: mustprogress nounwind uwtable
define linkonce_odr void @_ZNSt12_Vector_baseISt8functionIFvP10gmx_mdoutfldbbEESaIS4_EE17_Vector_impl_dataC2Ev(ptr noundef nonnull align 8 dereferenceable(24) %0) unnamed_addr #2 comdat align 2 {
  %2 = alloca ptr, align 8
  store ptr %0, ptr %2, align 8, !tbaa !112
  %3 = load ptr, ptr %2, align 8
  %4 = getelementptr inbounds nuw %"struct.std::_Vector_base<std::function<void (gmx_mdoutf *, long, double, bool, bool)>, std::allocator<std::function<void (gmx_mdoutf *, long, double, bool, bool)>>>::_Vector_impl_data", ptr %3, i32 0, i32 0
  store ptr null, ptr %4, align 8, !tbaa !114
  %5 = getelementptr inbounds nuw %"struct.std::_Vector_base<std::function<void (gmx_mdoutf *, long, double, bool, bool)>, std::allocator<std::function<void (gmx_mdoutf *, long, double, bool, bool)>>>::_Vector_impl_data", ptr %3, i32 0, i32 1
  store ptr null, ptr %5, align 8, !tbaa !115
  %6 = getelementptr inbounds nuw %"struct.std::_Vector_base<std::function<void (gmx_mdoutf *, long, double, bool, bool)>, std::allocator<std::function<void (gmx_mdoutf *, long, double, bool, bool)>>>::_Vector_impl_data", ptr %3, i32 0, i32 2
  store ptr null, ptr %6, align 8, !tbaa !116
  ret void
}

; Function Attrs: mustprogress nounwind uwtable
define linkonce_odr void @_ZNSaISt8functionIFvP10gmx_mdoutfldbbEEEC2Ev(ptr noundef nonnull align 1 dereferenceable(1) %0) unnamed_addr #2 comdat align 2 {
  %2 = alloca ptr, align 8
  store ptr %0, ptr %2, align 8, !tbaa !110
  %3 = load ptr, ptr %2, align 8
  call void @_ZNSt15__new_allocatorISt8functionIFvP10gmx_mdoutfldbbEEEC2Ev(ptr noundef nonnull align 1 dereferenceable(1) %3) #20
  ret void
}

; Function Attrs: mustprogress nounwind uwtable
define linkonce_odr void @_ZNSt12_Vector_baseIPN3gmx23ITrajectoryWriterClientESaIS2_EE17_Vector_impl_dataC2EOS5_(ptr noundef nonnull align 8 dereferenceable(24) %0, ptr noundef nonnull align 8 dereferenceable(24) %1) unnamed_addr #2 comdat align 2 {
  %3 = alloca ptr, align 8
  %4 = alloca ptr, align 8
  store ptr %0, ptr %3, align 8, !tbaa !99
  store ptr %1, ptr %4, align 8, !tbaa !99
  %5 = load ptr, ptr %3, align 8
  %6 = getelementptr inbounds nuw %"struct.std::_Vector_base<gmx::ITrajectoryWriterClient *, std::allocator<gmx::ITrajectoryWriterClient *>>::_Vector_impl_data", ptr %5, i32 0, i32 0
  %7 = load ptr, ptr %4, align 8, !tbaa !99
  %8 = getelementptr inbounds nuw %"struct.std::_Vector_base<gmx::ITrajectoryWriterClient *, std::allocator<gmx::ITrajectoryWriterClient *>>::_Vector_impl_data", ptr %7, i32 0, i32 0
  %9 = load ptr, ptr %8, align 8, !tbaa !101
  store ptr %9, ptr %6, align 8, !tbaa !101
  %10 = getelementptr inbounds nuw %"struct.std::_Vector_base<gmx::ITrajectoryWriterClient *, std::allocator<gmx::ITrajectoryWriterClient *>>::_Vector_impl_data", ptr %5, i32 0, i32 1
  %11 = load ptr, ptr %4, align 8, !tbaa !99
  %12 = getelementptr inbounds nuw %"struct.std::_Vector_base<gmx::ITrajectoryWriterClient *, std::allocator<gmx::ITrajectoryWriterClient *>>::_Vector_impl_data", ptr %11, i32 0, i32 1
  %13 = load ptr, ptr %12, align 8, !tbaa !102
  store ptr %13, ptr %10, align 8, !tbaa !102
  %14 = getelementptr inbounds nuw %"struct.std::_Vector_base<gmx::ITrajectoryWriterClient *, std::allocator<gmx::ITrajectoryWriterClient *>>::_Vector_impl_data", ptr %5, i32 0, i32 2
  %15 = load ptr, ptr %4, align 8, !tbaa !99
  %16 = getelementptr inbounds nuw %"struct.std::_Vector_base<gmx::ITrajectoryWriterClient *, std::allocator<gmx::ITrajectoryWriterClient *>>::_Vector_impl_data", ptr %15, i32 0, i32 2
  %17 = load ptr, ptr %16, align 8, !tbaa !103
  store ptr %17, ptr %14, align 8, !tbaa !103
  %18 = load ptr, ptr %4, align 8, !tbaa !99
  %19 = getelementptr inbounds nuw %"struct.std::_Vector_base<gmx::ITrajectoryWriterClient *, std::allocator<gmx::ITrajectoryWriterClient *>>::_Vector_impl_data", ptr %18, i32 0, i32 2
  store ptr null, ptr %19, align 8, !tbaa !103
  %20 = load ptr, ptr %4, align 8, !tbaa !99
  %21 = getelementptr inbounds nuw %"struct.std::_Vector_base<gmx::ITrajectoryWriterClient *, std::allocator<gmx::ITrajectoryWriterClient *>>::_Vector_impl_data", ptr %20, i32 0, i32 1
  store ptr null, ptr %21, align 8, !tbaa !102
  %22 = load ptr, ptr %4, align 8, !tbaa !99
  %23 = getelementptr inbounds nuw %"struct.std::_Vector_base<gmx::ITrajectoryWriterClient *, std::allocator<gmx::ITrajectoryWriterClient *>>::_Vector_impl_data", ptr %22, i32 0, i32 0
  store ptr null, ptr %23, align 8, !tbaa !101
  ret void
}

; Function Attrs: mustprogress nounwind uwtable
define linkonce_odr void @_ZNSaIPN3gmx23ITrajectoryWriterClientEEC2ERKS2_(ptr noundef nonnull align 1 dereferenceable(1) %0, ptr noundef nonnull align 1 dereferenceable(1) %1) unnamed_addr #2 comdat align 2 {
  %3 = alloca ptr, align 8
  %4 = alloca ptr, align 8
  store ptr %0, ptr %3, align 8, !tbaa !97
  store ptr %1, ptr %4, align 8, !tbaa !97
  %5 = load ptr, ptr %3, align 8
  %6 = load ptr, ptr %4, align 8, !tbaa !97
  call void @_ZNSt15__new_allocatorIPN3gmx23ITrajectoryWriterClientEEC2ERKS3_(ptr noundef nonnull align 1 dereferenceable(1) %5, ptr noundef nonnull align 1 dereferenceable(1) %6) #20
  ret void
}

; Function Attrs: mustprogress nounwind uwtable
define linkonce_odr void @_ZNSt12_Vector_baseISt8functionIFvP10gmx_mdoutfldbbEESaIS4_EE12_Vector_implC2Ev(ptr noundef nonnull align 8 dereferenceable(24) %0) unnamed_addr #2 comdat align 2 {
  %2 = alloca ptr, align 8
  store ptr %0, ptr %2, align 8, !tbaa !108
  %3 = load ptr, ptr %2, align 8
  call void @_ZNSaISt8functionIFvP10gmx_mdoutfldbbEEEC2Ev(ptr noundef nonnull align 1 dereferenceable(1) %3) #20
  call void @_ZNSt12_Vector_baseISt8functionIFvP10gmx_mdoutfldbbEESaIS4_EE17_Vector_impl_dataC2Ev(ptr noundef nonnull align 8 dereferenceable(24) %3) #20
  ret void
}

; Function Attrs: mustprogress nounwind uwtable
define linkonce_odr void @_ZNSt12_Vector_baseIPN3gmx23ITrajectoryWriterClientESaIS2_EE12_Vector_implC2EOS5_(ptr noundef nonnull align 8 dereferenceable(24) %0, ptr noundef nonnull align 8 dereferenceable(24) %1) unnamed_addr #2 comdat align 2 {
  %3 = alloca ptr, align 8
  %4 = alloca ptr, align 8
  store ptr %0, ptr %3, align 8, !tbaa !95
  store ptr %1, ptr %4, align 8, !tbaa !95
  %5 = load ptr, ptr %3, align 8
  %6 = load ptr, ptr %4, align 8, !tbaa !95
  call void @_ZNSaIPN3gmx23ITrajectoryWriterClientEEC2ERKS2_(ptr noundef nonnull align 1 dereferenceable(1) %5, ptr noundef nonnull align 1 dereferenceable(1) %6) #20
  %7 = load ptr, ptr %4, align 8, !tbaa !95
  call void @_ZNSt12_Vector_baseIPN3gmx23ITrajectoryWriterClientESaIS2_EE17_Vector_impl_dataC2EOS5_(ptr noundef nonnull align 8 dereferenceable(24) %5, ptr noundef nonnull align 8 dereferenceable(24) %7) #20
  ret void
}

; Function Attrs: mustprogress nounwind uwtable
define linkonce_odr void @_ZNSt12_Vector_baseISt8functionIFvP10gmx_mdoutfldbbEESaIS4_EEC2Ev(ptr noundef nonnull align 8 dereferenceable(24) %0) unnamed_addr #2 comdat align 2 {
  %2 = alloca ptr, align 8
  store ptr %0, ptr %2, align 8, !tbaa !106
  %3 = load ptr, ptr %2, align 8
  %4 = getelementptr inbounds nuw %"struct.std::_Vector_base.3", ptr %3, i32 0, i32 0
  call void @_ZNSt12_Vector_baseISt8functionIFvP10gmx_mdoutfldbbEESaIS4_EE12_Vector_implC2Ev(ptr noundef nonnull align 8 dereferenceable(24) %4) #20
  ret void
}

; Function Attrs: mustprogress nounwind uwtable
define linkonce_odr void @_ZNSt12_Vector_baseIPN3gmx23ITrajectoryWriterClientESaIS2_EEC2EOS4_(ptr noundef nonnull align 8 dereferenceable(24) %0, ptr noundef nonnull align 8 dereferenceable(24) %1) unnamed_addr #2 comdat align 2 {
  %3 = alloca ptr, align 8
  %4 = alloca ptr, align 8
  store ptr %0, ptr %3, align 8, !tbaa !93
  store ptr %1, ptr %4, align 8, !tbaa !93
  %5 = load ptr, ptr %3, align 8
  %6 = getelementptr inbounds nuw %"struct.std::_Vector_base", ptr %5, i32 0, i32 0
  %7 = load ptr, ptr %4, align 8, !tbaa !93
  %8 = getelementptr inbounds nuw %"struct.std::_Vector_base", ptr %7, i32 0, i32 0
  call void @_ZNSt12_Vector_baseIPN3gmx23ITrajectoryWriterClientESaIS2_EE12_Vector_implC2EOS5_(ptr noundef nonnull align 8 dereferenceable(24) %6, ptr noundef nonnull align 8 dereferenceable(24) %8) #20
  ret void
}

; Function Attrs: mustprogress nounwind uwtable
define linkonce_odr void @_ZN3gmx17ISimulatorElementD2Ev(ptr noundef nonnull align 8 dereferenceable(8) %0) unnamed_addr #2 comdat align 2 {
  %2 = alloca ptr, align 8
  store ptr %0, ptr %2, align 8, !tbaa !85
  ret void
}

; Function Attrs: mustprogress nounwind uwtable
define linkonce_odr void @_ZN3gmx23ILoggingSignallerClientD2Ev(ptr noundef nonnull align 8 dereferenceable(8) %0) unnamed_addr #2 comdat align 2 {
  %2 = alloca ptr, align 8
  store ptr %0, ptr %2, align 8, !tbaa !87
  ret void
}

; Function Attrs: mustprogress nounwind uwtable
define linkonce_odr void @_ZN3gmx26ITrajectorySignallerClientD2Ev(ptr noundef nonnull align 8 dereferenceable(8) %0) unnamed_addr #2 comdat align 2 {
  %2 = alloca ptr, align 8
  store ptr %0, ptr %2, align 8, !tbaa !89
  ret void
}

; Function Attrs: mustprogress nounwind uwtable
define linkonce_odr void @_ZNSt6vectorISt8functionIFvP10gmx_mdoutfldbbEESaIS4_EEC2Ev(ptr noundef nonnull align 8 dereferenceable(24) %0) unnamed_addr #2 comdat align 2 {
  %2 = alloca ptr, align 8
  store ptr %0, ptr %2, align 8, !tbaa !91
  %3 = load ptr, ptr %2, align 8
  call void @_ZNSt12_Vector_baseISt8functionIFvP10gmx_mdoutfldbbEESaIS4_EEC2Ev(ptr noundef nonnull align 8 dereferenceable(24) %3) #20
  ret void
}

; Function Attrs: mustprogress nounwind uwtable
define linkonce_odr void @_ZNSt6vectorIPN3gmx23ITrajectoryWriterClientESaIS2_EEC2EOS4_(ptr noundef nonnull align 8 dereferenceable(24) %0, ptr noundef nonnull align 8 dereferenceable(24) %1) unnamed_addr #2 comdat align 2 {
  %3 = alloca ptr, align 8
  %4 = alloca ptr, align 8
  store ptr %0, ptr %3, align 8, !tbaa !45
  store ptr %1, ptr %4, align 8, !tbaa !45
  %5 = load ptr, ptr %3, align 8
  %6 = load ptr, ptr %4, align 8, !tbaa !45
  call void @_ZNSt12_Vector_baseIPN3gmx23ITrajectoryWriterClientESaIS2_EEC2EOS4_(ptr noundef nonnull align 8 dereferenceable(24) %5, ptr noundef nonnull align 8 dereferenceable(24) %6) #20
  ret void
}

; Function Attrs: inlinehint mustprogress nounwind uwtable
define linkonce_odr void @_ZN3gmx26ITrajectorySignallerClientC2Ev(ptr noundef nonnull align 8 dereferenceable(8) %0) unnamed_addr #1 comdat align 2 {
  %2 = alloca ptr, align 8
  store ptr %0, ptr %2, align 8, !tbaa !89
  %3 = load ptr, ptr %2, align 8
  store ptr getelementptr inbounds inrange(-16, 24) ({ [5 x ptr] }, ptr @_ZTVN3gmx26ITrajectorySignallerClientE, i32 0, i32 0, i32 2), ptr %3, align 8, !tbaa !50
  ret void
}

; Function Attrs: inlinehint mustprogress nounwind uwtable
define linkonce_odr void @_ZN3gmx23ILoggingSignallerClientC2Ev(ptr noundef nonnull align 8 dereferenceable(8) %0) unnamed_addr #1 comdat align 2 {
  %2 = alloca ptr, align 8
  store ptr %0, ptr %2, align 8, !tbaa !87
  %3 = load ptr, ptr %2, align 8
  store ptr getelementptr inbounds inrange(-16, 24) ({ [5 x ptr] }, ptr @_ZTVN3gmx23ILoggingSignallerClientE, i32 0, i32 0, i32 2), ptr %3, align 8, !tbaa !50
  ret void
}

; Function Attrs: inlinehint mustprogress nounwind uwtable
define linkonce_odr void @_ZN3gmx17ISimulatorElementC2Ev(ptr noundef nonnull align 8 dereferenceable(8) %0) unnamed_addr #1 comdat align 2 {
  %2 = alloca ptr, align 8
  store ptr %0, ptr %2, align 8, !tbaa !85
  %3 = load ptr, ptr %2, align 8
  store ptr getelementptr inbounds inrange(-16, 40) ({ [7 x ptr] }, ptr @_ZTVN3gmx17ISimulatorElementE, i32 0, i32 0, i32 2), ptr %3, align 8, !tbaa !50
  ret void
}

; Function Attrs: mustprogress uwtable
define void @_ZN3gmx17TrajectoryElementC2ESt6vectorIPNS_23ITrajectoryWriterClientESaIS3_EEP8_IO_FILEiPK8t_filenmRKNS_12MdrunOptionsEPK9t_commrecPNS_17IMDOutputProviderERKNS_18MDModulesNotifiersEPK10t_inputrecRK10gmx_mtop_tPK16gmx_output_env_tP13gmx_wallcycleNS_16StartingBehaviorEb(ptr noundef nonnull align 8 dereferenceable(128) %0, ptr noundef %1, ptr noundef %2, i32 noundef %3, ptr noundef %4, ptr noundef nonnull align 1 %5, ptr noundef %6, ptr noundef %7, ptr noundef nonnull align 1 %8, ptr noundef %9, ptr noundef nonnull align 1 %10, ptr noundef %11, ptr noundef %12, i32 noundef %13, i1 noundef zeroext %14) unnamed_addr #0 align 2 personality ptr @__gxx_personality_v0 {
  %16 = alloca ptr, align 8
  %17 = alloca ptr, align 8
  %18 = alloca ptr, align 8
  %19 = alloca i32, align 4
  %20 = alloca ptr, align 8
  %21 = alloca ptr, align 8
  %22 = alloca ptr, align 8
  %23 = alloca ptr, align 8
  %24 = alloca ptr, align 8
  %25 = alloca ptr, align 8
  %26 = alloca ptr, align 8
  %27 = alloca ptr, align 8
  %28 = alloca ptr, align 8
  %29 = alloca i32, align 4
  %30 = alloca i8, align 1
  %31 = alloca ptr, align 8
  %32 = alloca i32, align 4
  store ptr %0, ptr %16, align 8, !tbaa !4
  store ptr %1, ptr %17, align 8, !tbaa !45
  store ptr %2, ptr %18, align 8, !tbaa !61
  store i32 %3, ptr %19, align 4, !tbaa !63
  store ptr %4, ptr %20, align 8, !tbaa !65
  store ptr %5, ptr %21, align 8, !tbaa !67
  store ptr %6, ptr %22, align 8, !tbaa !69
  store ptr %7, ptr %23, align 8, !tbaa !71
  store ptr %8, ptr %24, align 8, !tbaa !73
  store ptr %9, ptr %25, align 8, !tbaa !75
  store ptr %10, ptr %26, align 8, !tbaa !77
  store ptr %11, ptr %27, align 8, !tbaa !79
  store ptr %12, ptr %28, align 8, !tbaa !81
  store i32 %13, ptr %29, align 4, !tbaa !83
  %33 = zext i1 %14 to i8
  store i8 %33, ptr %30, align 1, !tbaa !32
  %34 = load ptr, ptr %16, align 8
  call void @_ZN3gmx17ISimulatorElementC2Ev(ptr noundef nonnull align 8 dereferenceable(8) %34) #20
  %35 = getelementptr inbounds i8, ptr %34, i64 8
  call void @_ZN3gmx23ILoggingSignallerClientC2Ev(ptr noundef nonnull align 8 dereferenceable(8) %35) #20
  %36 = getelementptr inbounds i8, ptr %34, i64 16
  call void @_ZN3gmx26ITrajectorySignallerClientC2Ev(ptr noundef nonnull align 8 dereferenceable(8) %36) #20
  store ptr getelementptr inbounds inrange(-16, 56) ({ [9 x ptr], [5 x ptr], [5 x ptr] }, ptr @_ZTVN3gmx17TrajectoryElementE, i32 0, i32 0, i32 2), ptr %34, align 8, !tbaa !50
  %37 = getelementptr inbounds i8, ptr %34, i64 8
  store ptr getelementptr inbounds inrange(-16, 24) ({ [9 x ptr], [5 x ptr], [5 x ptr] }, ptr @_ZTVN3gmx17TrajectoryElementE, i32 0, i32 1, i32 2), ptr %37, align 8, !tbaa !50
  %38 = getelementptr inbounds i8, ptr %34, i64 16
  store ptr getelementptr inbounds inrange(-16, 24) ({ [9 x ptr], [5 x ptr], [5 x ptr] }, ptr @_ZTVN3gmx17TrajectoryElementE, i32 0, i32 2, i32 2), ptr %38, align 8, !tbaa !50
  %39 = getelementptr inbounds nuw %"class.gmx::TrajectoryElement", ptr %34, i32 0, i32 3
  store i64 -1, ptr %39, align 8, !tbaa !15
  %40 = getelementptr inbounds nuw %"class.gmx::TrajectoryElement", ptr %34, i32 0, i32 4
  store i64 -1, ptr %40, align 8, !tbaa !34
  %41 = getelementptr inbounds nuw %"class.gmx::TrajectoryElement", ptr %34, i32 0, i32 5
  store i64 -1, ptr %41, align 8, !tbaa !35
  %42 = getelementptr inbounds nuw %"class.gmx::TrajectoryElement", ptr %34, i32 0, i32 6
  %43 = load ptr, ptr %18, align 8, !tbaa !61
  %44 = load i32, ptr %19, align 4, !tbaa !63
  %45 = load ptr, ptr %20, align 8, !tbaa !65
  %46 = load ptr, ptr %21, align 8, !tbaa !67
  %47 = load ptr, ptr %22, align 8, !tbaa !69
  %48 = load ptr, ptr %23, align 8, !tbaa !71
  %49 = load ptr, ptr %24, align 8, !tbaa !73
  %50 = load ptr, ptr %25, align 8, !tbaa !75
  %51 = load ptr, ptr %26, align 8, !tbaa !77
  %52 = load ptr, ptr %27, align 8, !tbaa !79
  %53 = load ptr, ptr %28, align 8, !tbaa !81
  %54 = load i32, ptr %29, align 4, !tbaa !83
  %55 = load i8, ptr %30, align 1, !tbaa !32, !range !36, !noundef !37
  %56 = trunc i8 %55 to i1
  %57 = invoke noundef ptr @_Z11init_mdoutfP8_IO_FILEiPK8t_filenmRKN3gmx12MdrunOptionsEPK9t_commrecPNS4_17IMDOutputProviderERKNS4_18MDModulesNotifiersEPK10t_inputrecRK10gmx_mtop_tPK16gmx_output_env_tP13gmx_wallcycleNS4_16StartingBehaviorEbPK14gmx_multisim_t(ptr noundef %43, i32 noundef %44, ptr noundef %45, ptr noundef nonnull align 1 %46, ptr noundef %47, ptr noundef %48, ptr noundef nonnull align 1 %49, ptr noundef %50, ptr noundef nonnull align 1 %51, ptr noundef %52, ptr noundef %53, i32 noundef %54, i1 noundef zeroext %56, ptr noundef null)
          to label %58 unwind label %62

58:                                               ; preds = %15
  store ptr %57, ptr %42, align 8, !tbaa !52
  %59 = getelementptr inbounds nuw %"class.gmx::TrajectoryElement", ptr %34, i32 0, i32 7
  call void @_ZNSt6vectorIPN3gmx23ITrajectoryWriterClientESaIS2_EEC2EOS4_(ptr noundef nonnull align 8 dereferenceable(24) %59, ptr noundef nonnull align 8 dereferenceable(24) %1) #20
  %60 = getelementptr inbounds nuw %"class.gmx::TrajectoryElement", ptr %34, i32 0, i32 8
  call void @_ZNSt6vectorISt8functionIFvP10gmx_mdoutfldbbEESaIS4_EEC2Ev(ptr noundef nonnull align 8 dereferenceable(24) %60) #20
  %61 = getelementptr inbounds nuw %"class.gmx::TrajectoryElement", ptr %34, i32 0, i32 9
  call void @_ZNSt6vectorISt8functionIFvP10gmx_mdoutfldbbEESaIS4_EEC2Ev(ptr noundef nonnull align 8 dereferenceable(24) %61) #20
  ret void

62:                                               ; preds = %15
  %63 = landingpad { ptr, i32 }
          cleanup
  %64 = extractvalue { ptr, i32 } %63, 0
  store ptr %64, ptr %31, align 8
  %65 = extractvalue { ptr, i32 } %63, 1
  store i32 %65, ptr %32, align 4
  %66 = getelementptr inbounds i8, ptr %34, i64 16
  call void @_ZN3gmx26ITrajectorySignallerClientD2Ev(ptr noundef nonnull align 8 dereferenceable(8) %66) #20
  %67 = getelementptr inbounds i8, ptr %34, i64 8
  call void @_ZN3gmx23ILoggingSignallerClientD2Ev(ptr noundef nonnull align 8 dereferenceable(8) %67) #20
  call void @_ZN3gmx17ISimulatorElementD2Ev(ptr noundef nonnull align 8 dereferenceable(8) %34) #20
  br label %68

68:                                               ; preds = %62
  %69 = load ptr, ptr %31, align 8
  %70 = load i32, ptr %32, align 4
  %71 = insertvalue { ptr, i32 } poison, ptr %69, 0
  %72 = insertvalue { ptr, i32 } %71, i32 %70, 1
  resume { ptr, i32 } %72
}