; Function Attrs: mustprogress uwtable
define void @_ZN3gmx17TrajectoryElementC2ESt6vectorIPNS_23ITrajectoryWriterClientESaIS3_EEP8_IO_FILEiPK8t_filenmRKNS_12MdrunOptionsEPK9t_commrecPNS_17IMDOutputProviderERKNS_18MDModulesNotifiersEPK10t_inputrecRK10gmx_mtop_tPK16gmx_output_env_tP13gmx_wallcycleNS_16StartingBehaviorEb(ptr noundef nonnull writeonly align 8 captures(none) dereferenceable(128) initializes((0, 128)) %0, ptr noundef captures(none) %1, ptr noundef %2, i32 noundef %3, ptr noundef %4, ptr noundef nonnull align 1 %5, ptr noundef %6, ptr noundef %7, ptr noundef nonnull align 1 %8, ptr noundef %9, ptr noundef nonnull align 1 %10, ptr noundef %11, ptr noundef %12, i32 noundef %13, i1 noundef zeroext %14) unnamed_addr #0 align 2 personality ptr @__gxx_personality_v0 {
  %16 = getelementptr inbounds nuw i8, ptr %0, i64 8
  %17 = getelementptr inbounds nuw i8, ptr %0, i64 16
  store ptr getelementptr inbounds nuw inrange(-16, 56) (i8, ptr @_ZTVN3gmx17TrajectoryElementE, i64 16), ptr %0, align 8, !tbaa !44
  store ptr getelementptr inbounds nuw inrange(-16, 24) (i8, ptr @_ZTVN3gmx17TrajectoryElementE, i64 88), ptr %16, align 8, !tbaa !44
  store ptr getelementptr inbounds nuw inrange(-16, 24) (i8, ptr @_ZTVN3gmx17TrajectoryElementE, i64 128), ptr %17, align 8, !tbaa !44
  %18 = getelementptr inbounds nuw i8, ptr %0, i64 24
  tail call void @llvm.memset.p0.i64(ptr noundef nonnull align 8 dereferenceable(24) %18, i8 -1, i64 24, i1 false)
  %19 = tail call noundef ptr @_Z11init_mdoutfP8_IO_FILEiPK8t_filenmRKN3gmx12MdrunOptionsEPK9t_commrecPNS4_17IMDOutputProviderERKNS4_18MDModulesNotifiersEPK10t_inputrecRK10gmx_mtop_tPK16gmx_output_env_tP13gmx_wallcycleNS4_16StartingBehaviorEbPK14gmx_multisim_t(ptr noundef %2, i32 noundef %3, ptr noundef %4, ptr noundef nonnull align 1 %5, ptr noundef %6, ptr noundef %7, ptr noundef nonnull align 1 %8, ptr noundef %9, ptr noundef nonnull align 1 %10, ptr noundef %11, ptr noundef %12, i32 noundef %13, i1 noundef zeroext %14, ptr noundef null)
  %20 = getelementptr inbounds nuw i8, ptr %0, i64 48
  store ptr %19, ptr %20, align 8, !tbaa !56
  %21 = getelementptr inbounds nuw i8, ptr %0, i64 56
  %22 = load ptr, ptr %1, align 8, !tbaa !60
  store ptr %22, ptr %21, align 8, !tbaa !60
  %23 = getelementptr inbounds nuw i8, ptr %0, i64 64
  %24 = getelementptr inbounds nuw i8, ptr %1, i64 8
  %25 = load ptr, ptr %24, align 8, !tbaa !72
  store ptr %25, ptr %23, align 8, !tbaa !72
  %26 = getelementptr inbounds nuw i8, ptr %0, i64 72
  %27 = getelementptr inbounds nuw i8, ptr %1, i64 16
  %28 = load ptr, ptr %27, align 8, !tbaa !61
  store ptr %28, ptr %26, align 8, !tbaa !61
  tail call void @llvm.memset.p0.i64(ptr noundef nonnull align 8 dereferenceable(24) %1, i8 0, i64 24, i1 false)
  %29 = getelementptr inbounds nuw i8, ptr %0, i64 80
  tail call void @llvm.memset.p0.i64(ptr noundef nonnull align 8 dereferenceable(48) %29, i8 0, i64 48, i1 false)
  ret void
}